; Function Attrs: mustprogress uwtable
define noundef i64 @_ZN8proxygen12HPACKEncoder12encodeHeaderERKNSt7__cxx1112basic_stringIcSt11char_traitsIcESaIcEEES8_(ptr noundef nonnull align 8 dereferenceable(236) %this, ptr noundef nonnull align 8 dereferenceable(32) %nameStr, ptr noundef nonnull align 8 dereferenceable(32) %value) local_unnamed_addr #3 align 2 personality ptr @__gxx_personality_v0 {
entry:
  %indexable.i = alloca i8, align 1
  %nameIndex.i = alloca %"class.folly::Optional", align 4
  %name = alloca %"class.proxygen::HPACKHeaderName", align 8
  %call.i = tail call noundef ptr @_ZNKSt7__cxx1112basic_stringIcSt11char_traitsIcESaIcEE4dataEv(ptr noundef nonnull align 8 dereferenceable(32) %nameStr) #22
  %call3.i = tail call noundef i64 @_ZNKSt7__cxx1112basic_stringIcSt11char_traitsIcESaIcEE4sizeEv(ptr noundef nonnull align 8 dereferenceable(32) %nameStr) #22
  %add.ptr.i = getelementptr inbounds i8, ptr %call.i, i64 %call3.i
  store ptr null, ptr %name, align 8
  call void @_ZN8proxygen15HPACKHeaderName12storeAddressEN5folly5RangeIPKcEE(ptr noundef nonnull align 8 dereferenceable(8) %name, ptr %call.i, ptr %add.ptr.i)
  %0 = load ptr, ptr %name, align 8
  %call.i2 = call noundef i64 @_ZNKSt7__cxx1112basic_stringIcSt11char_traitsIcESaIcEE4sizeEv(ptr noundef nonnull align 8 dereferenceable(32) %0) #22
  %call2 = call noundef i64 @_ZNKSt7__cxx1112basic_stringIcSt11char_traitsIcESaIcEE4sizeEv(ptr noundef nonnull align 8 dereferenceable(32) %value) #22
  %call.i3 = call noundef ptr @_ZNKSt7__cxx1112basic_stringIcSt11char_traitsIcESaIcEE4dataEv(ptr noundef nonnull align 8 dereferenceable(32) %value) #22
  %call3.i5 = call noundef i64 @_ZNKSt7__cxx1112basic_stringIcSt11char_traitsIcESaIcEE4sizeEv(ptr noundef nonnull align 8 dereferenceable(32) %value) #22
  %add.ptr.i6 = getelementptr inbounds i8, ptr %call.i3, i64 %call3.i5
  call void @llvm.lifetime.start.p0(i64 1, ptr nonnull %indexable.i)
  call void @llvm.lifetime.start.p0(i64 8, ptr nonnull %nameIndex.i)
  store i8 0, ptr %indexable.i, align 1
  invoke void @_ZN8proxygen12HPACKEncoder16encodeHeaderImplERKNS_15HPACKHeaderNameEN5folly5RangeIPKcEERb(ptr nonnull sret(%"class.folly::Optional") align 4 %nameIndex.i, ptr noundef nonnull align 8 dereferenceable(236) %this, ptr noundef nonnull align 8 dereferenceable(8) %name, ptr %call.i3, ptr %add.ptr.i6, ptr noundef nonnull align 1 dereferenceable(1) %indexable.i)
          to label %.noexc unwind label %lpad

.noexc:                                           ; preds = %entry
  %hasValue.i.i.i = getelementptr inbounds i8, ptr %nameIndex.i, i64 4
  %1 = load i8, ptr %hasValue.i.i.i, align 4
  %2 = and i8 %1, 1
  %tobool.i.i.not.i = icmp eq i8 %2, 0
  br i1 %tobool.i.i.not.i, label %invoke.cont6, label %_ZNR5folly8OptionalIjEdeEv.exit.i

_ZNR5folly8OptionalIjEdeEv.exit.i:                ; preds = %.noexc
  %3 = load i32, ptr %nameIndex.i, align 4
  %4 = load i8, ptr %indexable.i, align 1
  %5 = and i8 %4, 1
  %tobool.i = icmp ne i8 %5, 0
  %call4.i7 = invoke noundef zeroext i1 @_ZN8proxygen12HPACKEncoder15encodeAsLiteralEONS_15HPACKHeaderNameEjN5folly5RangeIPKcEEb(ptr noundef nonnull align 8 dereferenceable(236) %this, ptr noundef nonnull align 8 dereferenceable(8) %name, i32 noundef %3, ptr %call.i3, ptr %add.ptr.i6, i1 noundef zeroext %tobool.i)
          to label %invoke.cont6 unwind label %lpad

invoke.cont6:                                     ; preds = %.noexc, %_ZNR5folly8OptionalIjEdeEv.exit.i
  call void @llvm.lifetime.end.p0(i64 1, ptr nonnull %indexable.i)
  call void @llvm.lifetime.end.p0(i64 8, ptr nonnull %nameIndex.i)
  %6 = load ptr, ptr %name, align 8
  %cmp.i.i.i = icmp eq ptr %6, null
  br i1 %cmp.i.i.i, label %_ZN8proxygen15HPACKHeaderNameD2Ev.exit, label %_ZNK8proxygen15HPACKHeaderName11isAllocatedEv.exit.i.i

_ZNK8proxygen15HPACKHeaderName11isAllocatedEv.exit.i.i: ; preds = %invoke.cont6
  %call.i.i.i.i1.i = invoke noundef ptr @_ZN8proxygen17HTTPCommonHeaders17getPointerToTableB5cxx11ENS_25HTTPCommonHeaderTableTypeE(i8 noundef zeroext 1)
          to label %call.i.i.i.i.noexc.i unwind label %terminate.lpad.i

call.i.i.i.i.noexc.i:                             ; preds = %_ZNK8proxygen15HPACKHeaderName11isAllocatedEv.exit.i.i
  %sub.ptr.lhs.cast.i.i.i.i.i = ptrtoint ptr %6 to i64
  %sub.ptr.rhs.cast.i.i.i.i.i = ptrtoint ptr %call.i.i.i.i1.i to i64
  %sub.ptr.sub.i.i.i.i.i = sub i64 %sub.ptr.lhs.cast.i.i.i.i.i, %sub.ptr.rhs.cast.i.i.i.i.i
  %sub.ptr.div.i.i.i.i.i = ashr exact i64 %sub.ptr.sub.i.i.i.i.i, 5
  %7 = add nsw i64 %sub.ptr.div.i.i.i.i.i, -89
  %or.cond.i.i.i.i.i = icmp ult i64 %7, -87
  %8 = and i64 %sub.ptr.sub.i.i.i.i.i, 8128
  %9 = icmp eq i64 %8, 0
  %.not1.i.i.i = or i1 %9, %or.cond.i.i.i.i.i
  br i1 %.not1.i.i.i, label %if.then.i.i, label %_ZN8proxygen15HPACKHeaderNameD2Ev.exit

if.then.i.i:                                      ; preds = %call.i.i.i.i.noexc.i
  %10 = load ptr, ptr %name, align 8
  %isnull.i.i = icmp eq ptr %10, null
  br i1 %isnull.i.i, label %_ZN8proxygen15HPACKHeaderNameD2Ev.exit, label %delete.notnull.i.i

delete.notnull.i.i:                               ; preds = %if.then.i.i
  call void @_ZNSt7__cxx1112basic_stringIcSt11char_traitsIcESaIcEED1Ev(ptr noundef nonnull align 8 dereferenceable(32) %10) #22
  call void @_ZdlPv(ptr noundef nonnull %10) #23
  br label %_ZN8proxygen15HPACKHeaderNameD2Ev.exit

terminate.lpad.i:                                 ; preds = %_ZNK8proxygen15HPACKHeaderName11isAllocatedEv.exit.i.i
  %11 = landingpad { ptr, i32 }
          catch ptr null
  %12 = extractvalue { ptr, i32 } %11, 0
  call void @__clang_call_terminate(ptr %12) #24
  unreachable

_ZN8proxygen15HPACKHeaderNameD2Ev.exit:           ; preds = %invoke.cont6, %call.i.i.i.i.noexc.i, %if.then.i.i, %delete.notnull.i.i
  %conv = and i64 %call.i2, 4294967295
  %add = add nuw nsw i64 %conv, 2
  %add3 = add i64 %add, %call2
  ret i64 %add3

lpad:                                             ; preds = %_ZNR5folly8OptionalIjEdeEv.exit.i, %entry
  %13 = landingpad { ptr, i32 }
          cleanup
  call void @_ZN8proxygen15HPACKHeaderNameD2Ev(ptr noundef nonnull align 8 dereferenceable(8) %name) #22
  resume { ptr, i32 } %13
}